; Function Attrs: mustprogress nofree norecurse nosync nounwind uwtable
define void @_ZN6google8protobuf33ExtensionRangeOptions_Declaration12InternalSwapEPS1_(ptr nocapture noundef nonnull align 8 dereferenceable(48) %this, ptr noalias nocapture noundef %other) local_unnamed_addr #11 align 2 {
entry:
  %_internal_metadata_.i = getelementptr inbounds i8, ptr %this, i64 8
  %0 = load i64, ptr %_internal_metadata_.i, align 8
  %_internal_metadata_3 = getelementptr inbounds i8, ptr %other, i64 8
  %1 = load i64, ptr %_internal_metadata_3, align 8
  store i64 %1, ptr %_internal_metadata_.i, align 8
  store i64 %0, ptr %_internal_metadata_3, align 8
  %2 = getelementptr inbounds i8, ptr %this, i64 16
  %3 = getelementptr inbounds i8, ptr %other, i64 16
  %4 = load i32, ptr %2, align 8
  %5 = load i32, ptr %3, align 4
  store i32 %5, ptr %2, align 8
  store i32 %4, ptr %3, align 4
  %full_name_ = getelementptr inbounds i8, ptr %this, i64 24
  %full_name_7 = getelementptr inbounds i8, ptr %other, i64 24
  %6 = load <2 x ptr>, ptr %full_name_7, align 8
  %7 = load <2 x i64>, ptr %full_name_, align 8
  store <2 x i64> %7, ptr %full_name_7, align 8
  store <2 x ptr> %6, ptr %full_name_, align 8
  %number_ = getelementptr inbounds i8, ptr %this, i64 40
  %number_9 = getelementptr i8, ptr %other, i64 40
  tail call void @llvm.experimental.noalias.scope.decl(metadata !62)
  tail call void @llvm.experimental.noalias.scope.decl(metadata !65)
  br label %for.body.i.i

for.body.i.i:                                     ; preds = %for.body.i.i, %entry
  %__first2.addr.07.i.i = phi ptr [ %incdec.ptr1.i.i, %for.body.i.i ], [ %number_9, %entry ]
  %__first1.addr.06.i.idx.i = phi i64 [ %__first1.addr.06.i.add.i, %for.body.i.i ], [ 0, %entry ]
  %__first1.addr.06.i.ptr.i = getelementptr inbounds i8, ptr %number_, i64 %__first1.addr.06.i.idx.i
  %8 = load i8, ptr %__first1.addr.06.i.ptr.i, align 1, !alias.scope !62, !noalias !65
  %9 = load i8, ptr %__first2.addr.07.i.i, align 1, !alias.scope !65, !noalias !62
  store i8 %9, ptr %__first1.addr.06.i.ptr.i, align 1, !alias.scope !62, !noalias !65
  store i8 %8, ptr %__first2.addr.07.i.i, align 1, !alias.scope !65, !noalias !62
  %__first1.addr.06.i.add.i = add nuw nsw i64 %__first1.addr.06.i.idx.i, 1
  %incdec.ptr1.i.i = getelementptr inbounds i8, ptr %__first2.addr.07.i.i, i64 1
  %cmp.not.i.i = icmp eq i64 %__first1.addr.06.i.add.i, 6
  br i1 %cmp.not.i.i, label %_ZN6google8protobuf8internal7memswapILm6EEEvPcS3_.exit, label %for.body.i.i, !llvm.loop !45

_ZN6google8protobuf8internal7memswapILm6EEEvPcS3_.exit: ; preds = %for.body.i.i
  ret void
}